target datalayout = "e-m:e-p270:32:32-p271:32:32-p272:64:64-i64:64-i128:128-f80:128-n8:16:32:64-S128"
target triple = "x86_64-pc-linux-gnu"

; Function Attrs: inlinehint nounwind uwtable
define internal i32 @Average2(i32 noundef %0, i32 noundef %1) #2 {
  %3 = alloca i32, align 4
  %4 = alloca i32, align 4
  store i32 %0, ptr %3, align 4, !tbaa !8
  store i32 %1, ptr %4, align 4, !tbaa !8
  %5 = load i32, ptr %3, align 4, !tbaa !8
  %6 = load i32, ptr %4, align 4, !tbaa !8
  %7 = xor i32 %5, %6
  %8 = and i32 %7, -16843010
  %9 = lshr i32 %8, 1
  %10 = load i32, ptr %3, align 4, !tbaa !8
  %11 = load i32, ptr %4, align 4, !tbaa !8
  %12 = and i32 %10, %11
  %13 = add i32 %9, %12
  ret i32 %13
}

; Function Attrs: nounwind uwtable
define hidden i32 @VP8LPredictor7_C(ptr noundef %0, ptr noundef %1) #0 {
  %3 = alloca ptr, align 8
  %4 = alloca ptr, align 8
  %5 = alloca i32, align 4
  store ptr %0, ptr %3, align 8, !tbaa !3
  store ptr %1, ptr %4, align 8, !tbaa !3
  call void @llvm.lifetime.start.p0(i64 4, ptr %5) #8
  %6 = load ptr, ptr %3, align 8, !tbaa !3
  %7 = load i32, ptr %6, align 4, !tbaa !8
  %8 = load ptr, ptr %4, align 8, !tbaa !3
  %9 = getelementptr inbounds i32, ptr %8, i64 0
  %10 = load i32, ptr %9, align 4, !tbaa !8
  %11 = call i32 @Average2(i32 noundef %7, i32 noundef %10)
  store i32 %11, ptr %5, align 4, !tbaa !8
  %12 = load i32, ptr %5, align 4, !tbaa !8
  call void @llvm.lifetime.end.p0(i64 4, ptr %5) #8
  ret i32 %12
}