; Function Attrs: mustprogress nofree norecurse nosync nounwind willreturn memory(argmem: read) uwtable
define hidden i32 @VP8LPredictor7_C(ptr noundef readonly captures(none) %0, ptr noundef readonly captures(none) %1) #0 {
  %3 = load i32, ptr %0, align 4, !tbaa !3
  %4 = load i32, ptr %1, align 4, !tbaa !3
  %5 = xor i32 %4, %3
  %6 = lshr i32 %5, 1
  %7 = and i32 %6, 2139062143
  %8 = and i32 %4, %3
  %9 = add i32 %7, %8
  ret i32 %9
}